target datalayout = "e-m:e-p270:32:32-p271:32:32-p272:64:64-i64:64-i128:128-f80:128-n8:16:32:64-S128"
target triple = "x86_64-pc-linux-gnu"

@.str.97 = private unnamed_addr constant [10 x i8] c"BACKQUOTE\00", align 1
@.str.98 = private unnamed_addr constant [8 x i8] c"COMMENT\00", align 1
@.str.99 = private unnamed_addr constant [7 x i8] c"DEFARG\00", align 1
@.str.100 = private unnamed_addr constant [8 x i8] c"DEFFORM\00", align 1
@.str.101 = private unnamed_addr constant [7 x i8] c"DEFINE\00", align 1
@.str.102 = private unnamed_addr constant [7 x i8] c"DEFREF\00", align 1
@.str.103 = private unnamed_addr constant [12 x i8] c"DEFREF_JOIN\00", align 1
@.str.104 = private unnamed_addr constant [9 x i8] c"DEFVALUE\00", align 1
@.str.105 = private unnamed_addr constant [5 x i8] c"ELSE\00", align 1
@.str.106 = private unnamed_addr constant [6 x i8] c"ELSIF\00", align 1
@.str.107 = private unnamed_addr constant [6 x i8] c"ENDIF\00", align 1
@.str.108 = private unnamed_addr constant [4 x i8] c"EOF\00", align 1
@.str.109 = private unnamed_addr constant [10 x i8] c"EOF_ERROR\00", align 1
@.str.110 = private unnamed_addr constant [6 x i8] c"ERROR\00", align 1
@.str.111 = private unnamed_addr constant [6 x i8] c"IFDEF\00", align 1
@.str.112 = private unnamed_addr constant [7 x i8] c"IFNDEF\00", align 1
@.str.113 = private unnamed_addr constant [5 x i8] c"JOIN\00", align 1
@.str.114 = private unnamed_addr constant [8 x i8] c"INCLUDE\00", align 1
@.str.115 = private unnamed_addr constant [5 x i8] c"LINE\00", align 1
@.str.116 = private unnamed_addr constant [7 x i8] c"STRIFY\00", align 1
@.str.117 = private unnamed_addr constant [7 x i8] c"STRING\00", align 1
@.str.118 = private unnamed_addr constant [7 x i8] c"SYMBOL\00", align 1
@.str.119 = private unnamed_addr constant [12 x i8] c"SYMBOL_JOIN\00", align 1
@.str.120 = private unnamed_addr constant [5 x i8] c"TEXT\00", align 1
@.str.121 = private unnamed_addr constant [6 x i8] c"UNDEF\00", align 1
@.str.122 = private unnamed_addr constant [12 x i8] c"UNDEFINEALL\00", align 1
@.str.123 = private unnamed_addr constant [6 x i8] c"WHITE\00", align 1
@.str.124 = private unnamed_addr constant [2 x i8] c"?\00", align 1

; Function Attrs: mustprogress nounwind uwtable
define dso_local noundef ptr @_ZN12V3PreProcImp9tokenNameEi(i32 noundef %0) #4 align 2 {
  %2 = alloca ptr, align 8
  %3 = alloca i32, align 4
  store i32 %0, ptr %3, align 4, !tbaa !9
  %4 = load i32, ptr %3, align 4, !tbaa !9
  switch i32 %4, label %32 [
    i32 311, label %5
    i32 303, label %6
    i32 307, label %7
    i32 309, label %8
    i32 261, label %9
    i32 306, label %10
    i32 313, label %11
    i32 302, label %12
    i32 262, label %13
    i32 263, label %14
    i32 259, label %15
    i32 0, label %16
    i32 400, label %17
    i32 308, label %18
    i32 257, label %19
    i32 258, label %20
    i32 314, label %21
    i32 256, label %22
    i32 264, label %23
    i32 310, label %24
    i32 301, label %25
    i32 300, label %26
    i32 312, label %27
    i32 304, label %28
    i32 260, label %29
    i32 265, label %30
    i32 305, label %31
  ]

5:                                                ; preds = %1
  store ptr @.str.97, ptr %2, align 8
  br label %33

6:                                                ; preds = %1
  store ptr @.str.98, ptr %2, align 8
  br label %33

7:                                                ; preds = %1
  store ptr @.str.99, ptr %2, align 8
  br label %33

8:                                                ; preds = %1
  store ptr @.str.100, ptr %2, align 8
  br label %33

9:                                                ; preds = %1
  store ptr @.str.101, ptr %2, align 8
  br label %33

10:                                               ; preds = %1
  store ptr @.str.102, ptr %2, align 8
  br label %33

11:                                               ; preds = %1
  store ptr @.str.103, ptr %2, align 8
  br label %33

12:                                               ; preds = %1
  store ptr @.str.104, ptr %2, align 8
  br label %33

13:                                               ; preds = %1
  store ptr @.str.105, ptr %2, align 8
  br label %33

14:                                               ; preds = %1
  store ptr @.str.106, ptr %2, align 8
  br label %33

15:                                               ; preds = %1
  store ptr @.str.107, ptr %2, align 8
  br label %33

16:                                               ; preds = %1
  store ptr @.str.108, ptr %2, align 8
  br label %33

17:                                               ; preds = %1
  store ptr @.str.109, ptr %2, align 8
  br label %33

18:                                               ; preds = %1
  store ptr @.str.110, ptr %2, align 8
  br label %33

19:                                               ; preds = %1
  store ptr @.str.111, ptr %2, align 8
  br label %33

20:                                               ; preds = %1
  store ptr @.str.112, ptr %2, align 8
  br label %33

21:                                               ; preds = %1
  store ptr @.str.113, ptr %2, align 8
  br label %33

22:                                               ; preds = %1
  store ptr @.str.114, ptr %2, align 8
  br label %33

23:                                               ; preds = %1
  store ptr @.str.115, ptr %2, align 8
  br label %33

24:                                               ; preds = %1
  store ptr @.str.116, ptr %2, align 8
  br label %33

25:                                               ; preds = %1
  store ptr @.str.117, ptr %2, align 8
  br label %33

26:                                               ; preds = %1
  store ptr @.str.118, ptr %2, align 8
  br label %33

27:                                               ; preds = %1
  store ptr @.str.119, ptr %2, align 8
  br label %33

28:                                               ; preds = %1
  store ptr @.str.120, ptr %2, align 8
  br label %33

29:                                               ; preds = %1
  store ptr @.str.121, ptr %2, align 8
  br label %33

30:                                               ; preds = %1
  store ptr @.str.122, ptr %2, align 8
  br label %33

31:                                               ; preds = %1
  store ptr @.str.123, ptr %2, align 8
  br label %33

32:                                               ; preds = %1
  store ptr @.str.124, ptr %2, align 8
  br label %33

33:                                               ; preds = %32, %31, %30, %29, %28, %27, %26, %25, %24, %23, %22, %21, %20, %19, %18, %17, %16, %15, %14, %13, %12, %11, %10, %9, %8, %7, %6, %5
  %34 = load ptr, ptr %2, align 8
  ret ptr %34
}