; Function Attrs: mustprogress nofree norecurse nosync nounwind willreturn memory(none) uwtable
define dso_local noundef nonnull ptr @_ZN12V3PreProcImp9tokenNameEi(i32 noundef %0) local_unnamed_addr #26 align 2 {
  switch i32 %0, label %28 [
    i32 311, label %29
    i32 303, label %2
    i32 307, label %3
    i32 309, label %4
    i32 261, label %5
    i32 306, label %6
    i32 313, label %7
    i32 302, label %8
    i32 262, label %9
    i32 263, label %10
    i32 259, label %11
    i32 0, label %12
    i32 400, label %13
    i32 308, label %14
    i32 257, label %15
    i32 258, label %16
    i32 314, label %17
    i32 256, label %18
    i32 264, label %19
    i32 310, label %20
    i32 301, label %21
    i32 300, label %22
    i32 312, label %23
    i32 304, label %24
    i32 260, label %25
    i32 265, label %26
    i32 305, label %27
  ]

2:                                                ; preds = %1
  br label %29

3:                                                ; preds = %1
  br label %29

4:                                                ; preds = %1
  br label %29

5:                                                ; preds = %1
  br label %29

6:                                                ; preds = %1
  br label %29

7:                                                ; preds = %1
  br label %29

8:                                                ; preds = %1
  br label %29

9:                                                ; preds = %1
  br label %29

10:                                               ; preds = %1
  br label %29

11:                                               ; preds = %1
  br label %29

12:                                               ; preds = %1
  br label %29

13:                                               ; preds = %1
  br label %29

14:                                               ; preds = %1
  br label %29

15:                                               ; preds = %1
  br label %29

16:                                               ; preds = %1
  br label %29

17:                                               ; preds = %1
  br label %29

18:                                               ; preds = %1
  br label %29

19:                                               ; preds = %1
  br label %29

20:                                               ; preds = %1
  br label %29

21:                                               ; preds = %1
  br label %29

22:                                               ; preds = %1
  br label %29

23:                                               ; preds = %1
  br label %29

24:                                               ; preds = %1
  br label %29

25:                                               ; preds = %1
  br label %29

26:                                               ; preds = %1
  br label %29

27:                                               ; preds = %1
  br label %29

28:                                               ; preds = %1
  br label %29

29:                                               ; preds = %1, %28, %27, %26, %25, %24, %23, %22, %21, %20, %19, %18, %17, %16, %15, %14, %13, %12, %11, %10, %9, %8, %7, %6, %5, %4, %3, %2
  %.0 = phi ptr [ @.str.124, %28 ], [ @.str.123, %27 ], [ @.str.122, %26 ], [ @.str.121, %25 ], [ @.str.120, %24 ], [ @.str.119, %23 ], [ @.str.118, %22 ], [ @.str.117, %21 ], [ @.str.116, %20 ], [ @.str.115, %19 ], [ @.str.114, %18 ], [ @.str.113, %17 ], [ @.str.112, %16 ], [ @.str.111, %15 ], [ @.str.110, %14 ], [ @.str.109, %13 ], [ @.str.108, %12 ], [ @.str.107, %11 ], [ @.str.106, %10 ], [ @.str.105, %9 ], [ @.str.104, %8 ], [ @.str.103, %7 ], [ @.str.102, %6 ], [ @.str.101, %5 ], [ @.str.100, %4 ], [ @.str.99, %3 ], [ @.str.98, %2 ], [ @.str.97, %1 ]
  ret ptr %.0
}